; Function Attrs: nounwind uwtable
define internal range(i32 0, 2) i32 @new_dir(ptr noundef writeonly captures(none) %0) #1 {
  %2 = tail call noalias dereferenceable_or_null(16) ptr @malloc(i64 noundef 16) #13
  %3 = icmp eq ptr %2, null
  br i1 %3, label %11, label %4

4:                                                ; preds = %1
  %5 = tail call ptr @BUF_MEM_new() #14
  store ptr %5, ptr %2, align 8, !tbaa !6
  %6 = icmp eq ptr %5, null
  br i1 %6, label %7, label %8

7:                                                ; preds = %4
  tail call void @free(ptr noundef nonnull %2) #14
  br label %11

8:                                                ; preds = %4
  %9 = getelementptr inbounds nuw i8, ptr %2, i64 8
  store ptr null, ptr %9, align 8, !tbaa !13
  %10 = getelementptr inbounds nuw i8, ptr %0, i64 16
  store ptr %2, ptr %10, align 8, !tbaa !14
  br label %11

11:                                               ; preds = %1, %8, %7
  %.0 = phi i32 [ 0, %7 ], [ 1, %8 ], [ 0, %1 ]
  ret i32 %.0
}